; Function Attrs: mustprogress uwtable
define hidden noundef nonnull ptr @ncnn_mat_reshape_3d(ptr noundef %0, i32 noundef %1, i32 noundef %2, i32 noundef %3, ptr noundef readonly %4) local_unnamed_addr #1 personality ptr @__gxx_personality_v0 {
  %6 = tail call noalias noundef nonnull dereferenceable(72) ptr @_Znwm(i64 noundef 72) #24
  %.not = icmp eq ptr %4, null
  br i1 %.not, label %9, label %7

7:                                                ; preds = %5
  %8 = load ptr, ptr %4, align 8
  br label %9

9:                                                ; preds = %5, %7
  %10 = phi ptr [ %8, %7 ], [ null, %5 ]
  invoke void @_ZNK4ncnn3Mat7reshapeEiiiPNS_9AllocatorE(ptr dead_on_unwind nonnull writable sret(%"class.ncnn::Mat") align 8 %6, ptr noundef nonnull align 8 dereferenceable(72) %0, i32 noundef %1, i32 noundef %2, i32 noundef %3, ptr noundef %10)
          to label %11 unwind label %12

11:                                               ; preds = %9
  ret ptr %6

12:                                               ; preds = %9
  %13 = landingpad { ptr, i32 }
          cleanup
  tail call void @_ZdlPvm(ptr noundef nonnull %6, i64 noundef 72) #25
  resume { ptr, i32 } %13
}